target datalayout = "e-m:e-p270:32:32-p271:32:32-p272:64:64-i64:64-i128:128-f80:128-n8:16:32:64-S128"
target triple = "x86_64-pc-linux-gnu"

%struct.gmx_ana_selvalue_t = type { i32, i32, %union.anon, i32 }
%union.anon = type { ptr }
%struct.t_methoddata_kwint = type { ptr, i32, ptr }
%struct.gmx_ana_index_t = type { i32, ptr, i32 }

; Function Attrs: mustprogress nounwind uwtable
define internal void @_ZL20evaluate_keyword_intRKN3gmx20SelMethodEvalContextEP15gmx_ana_index_tP18gmx_ana_selvalue_tPv(ptr noundef nonnull align 8 dereferenceable(24) %0, ptr noundef %1, ptr noundef %2, ptr noundef %3) #1 {
  %5 = alloca ptr, align 8
  %6 = alloca ptr, align 8
  %7 = alloca ptr, align 8
  %8 = alloca ptr, align 8
  %9 = alloca ptr, align 8
  %10 = alloca i32, align 4
  %11 = alloca i32, align 4
  %12 = alloca i32, align 4
  %13 = alloca i32, align 4
  %14 = alloca i32, align 4
  %15 = alloca i32, align 4
  store ptr %0, ptr %5, align 8, !tbaa !27
  store ptr %1, ptr %6, align 8, !tbaa !29
  store ptr %2, ptr %7, align 8, !tbaa !31
  store ptr %3, ptr %8, align 8, !tbaa !15
  call void @llvm.lifetime.start.p0(i64 8, ptr %9) #22
  %16 = load ptr, ptr %8, align 8, !tbaa !15
  store ptr %16, ptr %9, align 8, !tbaa !11
  call void @llvm.lifetime.start.p0(i64 4, ptr %10) #22
  call void @llvm.lifetime.start.p0(i64 4, ptr %11) #22
  call void @llvm.lifetime.start.p0(i64 4, ptr %12) #22
  call void @llvm.lifetime.start.p0(i64 4, ptr %13) #22
  call void @llvm.lifetime.start.p0(i64 4, ptr %14) #22
  call void @llvm.lifetime.start.p0(i64 4, ptr %15) #22
  %17 = load ptr, ptr %7, align 8, !tbaa !31
  %18 = getelementptr inbounds nuw %struct.gmx_ana_selvalue_t, ptr %17, i32 0, i32 2
  %19 = load ptr, ptr %18, align 8, !tbaa !16
  %20 = getelementptr inbounds nuw %struct.gmx_ana_index_t, ptr %19, i32 0, i32 0
  store i32 0, ptr %20, align 8, !tbaa !33
  %21 = load ptr, ptr %9, align 8, !tbaa !11
  %22 = getelementptr inbounds nuw %struct.t_methoddata_kwint, ptr %21, i32 0, i32 1
  %23 = load i32, ptr %22, align 8, !tbaa !25
  store i32 %23, ptr %10, align 4, !tbaa !4
  store i32 0, ptr %11, align 4, !tbaa !4
  br label %24

24:                                               ; preds = %134, %4
  %25 = load i32, ptr %11, align 4, !tbaa !4
  %26 = load ptr, ptr %6, align 8, !tbaa !29
  %27 = getelementptr inbounds nuw %struct.gmx_ana_index_t, ptr %26, i32 0, i32 0
  %28 = load i32, ptr %27, align 8, !tbaa !33
  %29 = icmp slt i32 %25, %28
  br i1 %29, label %30, label %137

30:                                               ; preds = %24
  %31 = load ptr, ptr %9, align 8, !tbaa !11
  %32 = getelementptr inbounds nuw %struct.t_methoddata_kwint, ptr %31, i32 0, i32 0
  %33 = load ptr, ptr %32, align 8, !tbaa !17
  %34 = load i32, ptr %11, align 4, !tbaa !4
  %35 = sext i32 %34 to i64
  %36 = getelementptr inbounds i32, ptr %33, i64 %35
  %37 = load i32, ptr %36, align 4, !tbaa !4
  store i32 %37, ptr %15, align 4, !tbaa !4
  %38 = load ptr, ptr %9, align 8, !tbaa !11
  %39 = getelementptr inbounds nuw %struct.t_methoddata_kwint, ptr %38, i32 0, i32 2
  %40 = load ptr, ptr %39, align 8, !tbaa !26
  %41 = getelementptr inbounds i32, ptr %40, i64 0
  %42 = load i32, ptr %41, align 4, !tbaa !4
  %43 = load i32, ptr %15, align 4, !tbaa !4
  %44 = icmp sgt i32 %42, %43
  br i1 %44, label %57, label %45

45:                                               ; preds = %30
  %46 = load ptr, ptr %9, align 8, !tbaa !11
  %47 = getelementptr inbounds nuw %struct.t_methoddata_kwint, ptr %46, i32 0, i32 2
  %48 = load ptr, ptr %47, align 8, !tbaa !26
  %49 = load i32, ptr %10, align 4, !tbaa !4
  %50 = mul nsw i32 2, %49
  %51 = sub nsw i32 %50, 1
  %52 = sext i32 %51 to i64
  %53 = getelementptr inbounds i32, ptr %48, i64 %52
  %54 = load i32, ptr %53, align 4, !tbaa !4
  %55 = load i32, ptr %15, align 4, !tbaa !4
  %56 = icmp slt i32 %54, %55
  br i1 %56, label %57, label %58

57:                                               ; preds = %45, %30
  br label %134

58:                                               ; preds = %45
  store i32 0, ptr %13, align 4, !tbaa !4
  %59 = load i32, ptr %10, align 4, !tbaa !4
  store i32 %59, ptr %14, align 4, !tbaa !4
  br label %60

60:                                               ; preds = %99, %58
  %61 = load i32, ptr %14, align 4, !tbaa !4
  %62 = load i32, ptr %13, align 4, !tbaa !4
  %63 = sub nsw i32 %61, %62
  %64 = icmp sgt i32 %63, 1
  br i1 %64, label %65, label %100

65:                                               ; preds = %60
  %66 = load i32, ptr %13, align 4, !tbaa !4
  %67 = load i32, ptr %14, align 4, !tbaa !4
  %68 = load i32, ptr %13, align 4, !tbaa !4
  %69 = sub nsw i32 %67, %68
  %70 = sdiv i32 %69, 2
  %71 = add nsw i32 %66, %70
  store i32 %71, ptr %12, align 4, !tbaa !4
  %72 = load i32, ptr %15, align 4, !tbaa !4
  %73 = load ptr, ptr %9, align 8, !tbaa !11
  %74 = getelementptr inbounds nuw %struct.t_methoddata_kwint, ptr %73, i32 0, i32 2
  %75 = load ptr, ptr %74, align 8, !tbaa !26
  %76 = load i32, ptr %12, align 4, !tbaa !4
  %77 = mul nsw i32 2, %76
  %78 = sext i32 %77 to i64
  %79 = getelementptr inbounds i32, ptr %75, i64 %78
  %80 = load i32, ptr %79, align 4, !tbaa !4
  %81 = icmp slt i32 %72, %80
  br i1 %81, label %82, label %84

82:                                               ; preds = %65
  %83 = load i32, ptr %12, align 4, !tbaa !4
  store i32 %83, ptr %14, align 4, !tbaa !4
  br label %99

84:                                               ; preds = %65
  %85 = load i32, ptr %12, align 4, !tbaa !4
  store i32 %85, ptr %13, align 4, !tbaa !4
  %86 = load i32, ptr %15, align 4, !tbaa !4
  %87 = load ptr, ptr %9, align 8, !tbaa !11
  %88 = getelementptr inbounds nuw %struct.t_methoddata_kwint, ptr %87, i32 0, i32 2
  %89 = load ptr, ptr %88, align 8, !tbaa !26
  %90 = load i32, ptr %12, align 4, !tbaa !4
  %91 = mul nsw i32 2, %90
  %92 = add nsw i32 %91, 1
  %93 = sext i32 %92 to i64
  %94 = getelementptr inbounds i32, ptr %89, i64 %93
  %95 = load i32, ptr %94, align 4, !tbaa !4
  %96 = icmp sle i32 %86, %95
  br i1 %96, label %97, label %98

97:                                               ; preds = %84
  br label %100

98:                                               ; preds = %84
  br label %99

99:                                               ; preds = %98, %82
  br label %60, !llvm.loop !35

100:                                              ; preds = %97, %60
  %101 = load i32, ptr %15, align 4, !tbaa !4
  %102 = load ptr, ptr %9, align 8, !tbaa !11
  %103 = getelementptr inbounds nuw %struct.t_methoddata_kwint, ptr %102, i32 0, i32 2
  %104 = load ptr, ptr %103, align 8, !tbaa !26
  %105 = load i32, ptr %13, align 4, !tbaa !4
  %106 = mul nsw i32 2, %105
  %107 = add nsw i32 %106, 1
  %108 = sext i32 %107 to i64
  %109 = getelementptr inbounds i32, ptr %104, i64 %108
  %110 = load i32, ptr %109, align 4, !tbaa !4
  %111 = icmp sle i32 %101, %110
  br i1 %111, label %112, label %133

112:                                              ; preds = %100
  %113 = load ptr, ptr %6, align 8, !tbaa !29
  %114 = getelementptr inbounds nuw %struct.gmx_ana_index_t, ptr %113, i32 0, i32 1
  %115 = load ptr, ptr %114, align 8, !tbaa !37
  %116 = load i32, ptr %11, align 4, !tbaa !4
  %117 = sext i32 %116 to i64
  %118 = getelementptr inbounds i32, ptr %115, i64 %117
  %119 = load i32, ptr %118, align 4, !tbaa !4
  %120 = load ptr, ptr %7, align 8, !tbaa !31
  %121 = getelementptr inbounds nuw %struct.gmx_ana_selvalue_t, ptr %120, i32 0, i32 2
  %122 = load ptr, ptr %121, align 8, !tbaa !16
  %123 = getelementptr inbounds nuw %struct.gmx_ana_index_t, ptr %122, i32 0, i32 1
  %124 = load ptr, ptr %123, align 8, !tbaa !37
  %125 = load ptr, ptr %7, align 8, !tbaa !31
  %126 = getelementptr inbounds nuw %struct.gmx_ana_selvalue_t, ptr %125, i32 0, i32 2
  %127 = load ptr, ptr %126, align 8, !tbaa !16
  %128 = getelementptr inbounds nuw %struct.gmx_ana_index_t, ptr %127, i32 0, i32 0
  %129 = load i32, ptr %128, align 8, !tbaa !33
  %130 = add nsw i32 %129, 1
  store i32 %130, ptr %128, align 8, !tbaa !33
  %131 = sext i32 %129 to i64
  %132 = getelementptr inbounds i32, ptr %124, i64 %131
  store i32 %119, ptr %132, align 4, !tbaa !4
  br label %133

133:                                              ; preds = %112, %100
  br label %134

134:                                              ; preds = %133, %57
  %135 = load i32, ptr %11, align 4, !tbaa !4
  %136 = add nsw i32 %135, 1
  store i32 %136, ptr %11, align 4, !tbaa !4
  br label %24, !llvm.loop !38

137:                                              ; preds = %24
  call void @llvm.lifetime.end.p0(i64 4, ptr %15) #22
  call void @llvm.lifetime.end.p0(i64 4, ptr %14) #22
  call void @llvm.lifetime.end.p0(i64 4, ptr %13) #22
  call void @llvm.lifetime.end.p0(i64 4, ptr %12) #22
  call void @llvm.lifetime.end.p0(i64 4, ptr %11) #22
  call void @llvm.lifetime.end.p0(i64 4, ptr %10) #22
  call void @llvm.lifetime.end.p0(i64 8, ptr %9) #22
  ret void
}