; Function Attrs: mustprogress nofree norecurse nosync nounwind memory(readwrite, inaccessiblemem: none) uwtable
define internal void @_ZL20evaluate_keyword_intRKN3gmx20SelMethodEvalContextEP15gmx_ana_index_tP18gmx_ana_selvalue_tPv(ptr nonnull readnone align 8 captures(none) %0, ptr noundef readonly captures(none) %1, ptr noundef readonly captures(none) %2, ptr noundef readonly captures(none) %3) #2 {
  %5 = getelementptr inbounds nuw i8, ptr %2, i64 8
  %6 = load ptr, ptr %5, align 8, !tbaa !4
  store i32 0, ptr %6, align 8, !tbaa !19
  %7 = getelementptr inbounds nuw i8, ptr %3, i64 8
  %8 = load i32, ptr %7, align 8, !tbaa !17
  %.fr47 = freeze i32 %8
  %9 = load i32, ptr %1, align 8, !tbaa !19
  %10 = icmp sgt i32 %9, 0
  br i1 %10, label %.lr.ph45, label %._crit_edge46

.lr.ph45:                                         ; preds = %4
  %11 = load ptr, ptr %3, align 8, !tbaa !7
  %12 = getelementptr inbounds nuw i8, ptr %3, i64 16
  %13 = load ptr, ptr %12, align 8, !tbaa !18
  %14 = shl nsw i32 %.fr47, 1
  %15 = sext i32 %14 to i64
  %16 = getelementptr i32, ptr %13, i64 %15
  %17 = getelementptr i8, ptr %16, i64 -4
  %18 = icmp sgt i32 %.fr47, 1
  %19 = getelementptr inbounds nuw i8, ptr %1, i64 8
  br i1 %18, label %.lr.ph45.split.us, label %.lr.ph45.split

.lr.ph45.split.us:                                ; preds = %.lr.ph45, %57
  %20 = phi i32 [ %58, %57 ], [ %9, %.lr.ph45 ]
  %indvars.iv50 = phi i64 [ %indvars.iv.next51, %57 ], [ 0, %.lr.ph45 ]
  %21 = getelementptr inbounds nuw i32, ptr %11, i64 %indvars.iv50
  %22 = load i32, ptr %21, align 4, !tbaa !21
  %23 = load i32, ptr %13, align 4, !tbaa !21
  %24 = icmp sgt i32 %23, %22
  br i1 %24, label %57, label %25

25:                                               ; preds = %.lr.ph45.split.us
  %26 = load i32, ptr %17, align 4, !tbaa !21
  %27 = icmp slt i32 %26, %22
  br i1 %27, label %57, label %.preheader.us

.preheader.us:                                    ; preds = %25, %54
  %28 = phi i32 [ %55, %54 ], [ %.fr47, %25 ]
  %.03340.us = phi i32 [ %.1.us, %54 ], [ %.fr47, %25 ]
  %.03439.us = phi i32 [ %.2.us, %54 ], [ 0, %25 ]
  %29 = lshr i32 %28, 1
  %30 = add nuw nsw i32 %29, %.03439.us
  %31 = shl nuw nsw i32 %30, 1
  %32 = zext nneg i32 %31 to i64
  %33 = getelementptr inbounds nuw i32, ptr %13, i64 %32
  %34 = load i32, ptr %33, align 4, !tbaa !21
  %35 = icmp slt i32 %22, %34
  br i1 %35, label %54, label %36

36:                                               ; preds = %.preheader.us
  %37 = or disjoint i32 %31, 1
  %38 = zext nneg i32 %37 to i64
  %39 = getelementptr inbounds nuw i32, ptr %13, i64 %38
  %40 = load i32, ptr %39, align 4, !tbaa !21
  %.not.us = icmp sgt i32 %22, %40
  br i1 %.not.us, label %54, label %._crit_edge.us

._crit_edge.us:                                   ; preds = %36, %.._crit_edge.us_crit_edge
  %.pre-phi58 = phi i64 [ %.pre57, %.._crit_edge.us_crit_edge ], [ %38, %36 ]
  %41 = getelementptr inbounds nuw i32, ptr %13, i64 %.pre-phi58
  %42 = load i32, ptr %41, align 4, !tbaa !21
  %.not38.us = icmp sgt i32 %22, %42
  br i1 %.not38.us, label %57, label %43

43:                                               ; preds = %._crit_edge.us
  %44 = load ptr, ptr %19, align 8, !tbaa !22
  %45 = getelementptr inbounds nuw i32, ptr %44, i64 %indvars.iv50
  %46 = load i32, ptr %45, align 4, !tbaa !21
  %47 = load ptr, ptr %5, align 8, !tbaa !4
  %48 = getelementptr inbounds nuw i8, ptr %47, i64 8
  %49 = load ptr, ptr %48, align 8, !tbaa !22
  %50 = load i32, ptr %47, align 8, !tbaa !19
  %51 = add nsw i32 %50, 1
  store i32 %51, ptr %47, align 8, !tbaa !19
  %52 = sext i32 %50 to i64
  %53 = getelementptr inbounds i32, ptr %49, i64 %52
  store i32 %46, ptr %53, align 4, !tbaa !21
  %.pre53 = load i32, ptr %1, align 8, !tbaa !19
  br label %57

54:                                               ; preds = %36, %.preheader.us
  %.2.us = phi i32 [ %30, %36 ], [ %.03439.us, %.preheader.us ]
  %.1.us = phi i32 [ %.03340.us, %36 ], [ %30, %.preheader.us ]
  %55 = sub nsw i32 %.1.us, %.2.us
  %56 = icmp sgt i32 %55, 1
  br i1 %56, label %.preheader.us, label %.._crit_edge.us_crit_edge, !llvm.loop !23

.._crit_edge.us_crit_edge:                        ; preds = %54
  %.pre54 = shl nuw nsw i32 %.2.us, 1
  %.pre55 = or disjoint i32 %.pre54, 1
  %.pre57 = zext nneg i32 %.pre55 to i64
  br label %._crit_edge.us

57:                                               ; preds = %43, %._crit_edge.us, %25, %.lr.ph45.split.us
  %58 = phi i32 [ %.pre53, %43 ], [ %20, %._crit_edge.us ], [ %20, %25 ], [ %20, %.lr.ph45.split.us ]
  %indvars.iv.next51 = add nuw nsw i64 %indvars.iv50, 1
  %59 = sext i32 %58 to i64
  %60 = icmp slt i64 %indvars.iv.next51, %59
  br i1 %60, label %.lr.ph45.split.us, label %._crit_edge46, !llvm.loop !25

.lr.ph45.split:                                   ; preds = %.lr.ph45
  %61 = getelementptr inbounds nuw i8, ptr %13, i64 4
  br label %62

62:                                               ; preds = %.lr.ph45.split, %83
  %63 = phi i32 [ %9, %.lr.ph45.split ], [ %84, %83 ]
  %indvars.iv = phi i64 [ 0, %.lr.ph45.split ], [ %indvars.iv.next, %83 ]
  %64 = getelementptr inbounds nuw i32, ptr %11, i64 %indvars.iv
  %65 = load i32, ptr %64, align 4, !tbaa !21
  %66 = load i32, ptr %13, align 4, !tbaa !21
  %67 = icmp sgt i32 %66, %65
  br i1 %67, label %83, label %68

68:                                               ; preds = %62
  %69 = load i32, ptr %17, align 4, !tbaa !21
  %70 = icmp slt i32 %69, %65
  br i1 %70, label %83, label %.preheader

.preheader:                                       ; preds = %68
  %71 = load i32, ptr %61, align 4, !tbaa !21
  %.not38 = icmp sgt i32 %65, %71
  br i1 %.not38, label %83, label %72

72:                                               ; preds = %.preheader
  %73 = load ptr, ptr %19, align 8, !tbaa !22
  %74 = getelementptr inbounds nuw i32, ptr %73, i64 %indvars.iv
  %75 = load i32, ptr %74, align 4, !tbaa !21
  %76 = load ptr, ptr %5, align 8, !tbaa !4
  %77 = getelementptr inbounds nuw i8, ptr %76, i64 8
  %78 = load ptr, ptr %77, align 8, !tbaa !22
  %79 = load i32, ptr %76, align 8, !tbaa !19
  %80 = add nsw i32 %79, 1
  store i32 %80, ptr %76, align 8, !tbaa !19
  %81 = sext i32 %79 to i64
  %82 = getelementptr inbounds i32, ptr %78, i64 %81
  store i32 %75, ptr %82, align 4, !tbaa !21
  %.pre = load i32, ptr %1, align 8, !tbaa !19
  br label %83

83:                                               ; preds = %.preheader, %72, %62, %68
  %84 = phi i32 [ %63, %.preheader ], [ %.pre, %72 ], [ %63, %62 ], [ %63, %68 ]
  %indvars.iv.next = add nuw nsw i64 %indvars.iv, 1
  %85 = sext i32 %84 to i64
  %86 = icmp slt i64 %indvars.iv.next, %85
  br i1 %86, label %62, label %._crit_edge46, !llvm.loop !25

._crit_edge46:                                    ; preds = %83, %57, %4
  ret void
}